; Function Attrs: nounwind uwtable
define internal void @__cxx_global_array_dtor(ptr nocapture readnone %0) #3 section ".text.startup" {
entry:
  br label %arraydestroy.body

arraydestroy.body:                                ; preds = %_ZN4node5http212Http2Session9CallbacksD2Ev.exit, %entry
  %arraydestroy.elementPast = phi ptr [ getelementptr inbounds ([2 x %"struct.node::http2::Http2Session::Callbacks"], ptr @_ZN4node5http212Http2Session21callback_struct_savedE, i64 1, i64 0), %entry ], [ %arraydestroy.element, %_ZN4node5http212Http2Session9CallbacksD2Ev.exit ]
  %arraydestroy.element = getelementptr inbounds i8, ptr %arraydestroy.elementPast, i64 -8
  %1 = load ptr, ptr %arraydestroy.element, align 8
  %cmp.not.i.i = icmp eq ptr %1, null
  br i1 %cmp.not.i.i, label %_ZN4node5http212Http2Session9CallbacksD2Ev.exit, label %if.then.i.i

if.then.i.i:                                      ; preds = %arraydestroy.body
  tail call void @nghttp2_session_callbacks_del(ptr noundef nonnull %1) #29
  br label %_ZN4node5http212Http2Session9CallbacksD2Ev.exit

_ZN4node5http212Http2Session9CallbacksD2Ev.exit:  ; preds = %arraydestroy.body, %if.then.i.i
  store ptr null, ptr %arraydestroy.element, align 8
  %arraydestroy.done = icmp eq ptr %arraydestroy.element, @_ZN4node5http212Http2Session21callback_struct_savedE
  br i1 %arraydestroy.done, label %arraydestroy.done1, label %arraydestroy.body

arraydestroy.done1:                               ; preds = %_ZN4node5http212Http2Session9CallbacksD2Ev.exit
  ret void
}